target datalayout = "e-m:e-p270:32:32-p271:32:32-p272:64:64-i64:64-i128:128-f80:128-n8:16:32:64-S128"
target triple = "x86_64-unknown-linux-gnu"

%"class.spacer::lemma_quantifier_generalizer" = type { %"class.spacer::lemma_generalizer", ptr, %class.arith_util, %"struct.spacer::lemma_quantifier_generalizer::stats", %class.ref_vector, i8, i32 }
%"class.spacer::lemma_generalizer" = type { ptr, ptr }
%class.arith_util = type { ptr, ptr }
%"struct.spacer::lemma_quantifier_generalizer::stats" = type { i32, i32, %class.stopwatch }
%class.stopwatch = type <{ %"class.std::chrono::time_point", %"class.std::chrono::duration", i8, [7 x i8] }>
%"class.std::chrono::time_point" = type { %"class.std::chrono::duration" }
%"class.std::chrono::duration" = type { i64 }
%class.ref_vector = type { %class.ref_vector_core }
%class.ref_vector_core = type { %class.ref_manager_wrapper, %class.ptr_vector }
%class.ref_manager_wrapper = type { ptr }
%class.ptr_vector = type { %class.vector }
%class.vector = type { ptr }
%"class.std::chrono::duration.113" = type { i64 }

@.str = private unnamed_addr constant [34 x i8] c"time.spacer.solve.reach.gen.quant\00", align 1
@.str.1 = private unnamed_addr constant [15 x i8] c"quantifier gen\00", align 1
@.str.2 = private unnamed_addr constant [24 x i8] c"quantifier gen failures\00", align 1

; Function Attrs: mustprogress nounwind uwtable
define linkonce_odr hidden void @_ZNSt6chrono8durationIlSt5ratioILl1ELl1000000000EEEC2IlvEERKT_(ptr noundef nonnull align 8 dereferenceable(8) %this, ptr noundef nonnull align 8 dereferenceable(8) %__rep) unnamed_addr #5 comdat align 2 {
entry:
  %this.addr = alloca ptr, align 8
  %__rep.addr = alloca ptr, align 8
  store ptr %this, ptr %this.addr, align 8
  store ptr %__rep, ptr %__rep.addr, align 8
  %this1 = load ptr, ptr %this.addr, align 8
  %__r = getelementptr inbounds %"class.std::chrono::duration", ptr %this1, i32 0, i32 0
  %0 = load ptr, ptr %__rep.addr, align 8
  %1 = load i64, ptr %0, align 8
  store i64 %1, ptr %__r, align 8
  ret void
}

; Function Attrs: mustprogress nounwind uwtable
define linkonce_odr hidden void @_ZNSt6chrono8durationIlSt5ratioILl1ELl1000EEEC2IlvEERKT_(ptr noundef nonnull align 8 dereferenceable(8) %this, ptr noundef nonnull align 8 dereferenceable(8) %__rep) unnamed_addr #5 comdat align 2 {
entry:
  %this.addr = alloca ptr, align 8
  %__rep.addr = alloca ptr, align 8
  store ptr %this, ptr %this.addr, align 8
  store ptr %__rep, ptr %__rep.addr, align 8
  %this1 = load ptr, ptr %this.addr, align 8
  %__r = getelementptr inbounds %"class.std::chrono::duration.113", ptr %this1, i32 0, i32 0
  %0 = load ptr, ptr %__rep.addr, align 8
  %1 = load i64, ptr %0, align 8
  store i64 %1, ptr %__r, align 8
  ret void
}

; Function Attrs: mustprogress nounwind uwtable
define linkonce_odr hidden noundef i64 @_ZNKSt6chrono8durationIlSt5ratioILl1ELl1000000000EEE5countEv(ptr noundef nonnull align 8 dereferenceable(8) %this) #5 comdat align 2 {
entry:
  %this.addr = alloca ptr, align 8
  store ptr %this, ptr %this.addr, align 8
  %this1 = load ptr, ptr %this.addr, align 8
  %__r = getelementptr inbounds %"class.std::chrono::duration", ptr %this1, i32 0, i32 0
  %0 = load i64, ptr %__r, align 8
  ret i64 %0
}

; Function Attrs: mustprogress uwtable
define linkonce_odr i64 @_ZNSt6chronomiIlSt5ratioILl1ELl1000000000EElS2_EENSt11common_typeIJNS_8durationIT_T0_EENS4_IT1_T2_EEEE4typeERKS7_RKSA_(ptr noundef nonnull align 8 dereferenceable(8) %__lhs, ptr noundef nonnull align 8 dereferenceable(8) %__rhs) #4 comdat {
entry:
  %retval = alloca %"class.std::chrono::duration", align 8
  %__lhs.addr = alloca ptr, align 8
  %__rhs.addr = alloca ptr, align 8
  %ref.tmp = alloca i64, align 8
  %ref.tmp1 = alloca %"class.std::chrono::duration", align 8
  %ref.tmp2 = alloca %"class.std::chrono::duration", align 8
  store ptr %__lhs, ptr %__lhs.addr, align 8
  store ptr %__rhs, ptr %__rhs.addr, align 8
  %0 = load ptr, ptr %__lhs.addr, align 8
  call void @llvm.memcpy.p0.p0.i64(ptr align 8 %ref.tmp1, ptr align 8 %0, i64 8, i1 false)
  %call = call noundef i64 @_ZNKSt6chrono8durationIlSt5ratioILl1ELl1000000000EEE5countEv(ptr noundef nonnull align 8 dereferenceable(8) %ref.tmp1)
  %1 = load ptr, ptr %__rhs.addr, align 8
  call void @llvm.memcpy.p0.p0.i64(ptr align 8 %ref.tmp2, ptr align 8 %1, i64 8, i1 false)
  %call3 = call noundef i64 @_ZNKSt6chrono8durationIlSt5ratioILl1ELl1000000000EEE5countEv(ptr noundef nonnull align 8 dereferenceable(8) %ref.tmp2)
  %sub = sub nsw i64 %call, %call3
  store i64 %sub, ptr %ref.tmp, align 8
  call void @_ZNSt6chrono8durationIlSt5ratioILl1ELl1000000000EEEC2IlvEERKT_(ptr noundef nonnull align 8 dereferenceable(8) %retval, ptr noundef nonnull align 8 dereferenceable(8) %ref.tmp)
  %coerce.dive = getelementptr inbounds %"class.std::chrono::duration", ptr %retval, i32 0, i32 0
  %2 = load i64, ptr %coerce.dive, align 8
  ret i64 %2
}

; Function Attrs: mustprogress nounwind uwtable
define linkonce_odr hidden i64 @_ZNKSt6chrono10time_pointINS_3_V212steady_clockENS_8durationIlSt5ratioILl1ELl1000000000EEEEE16time_since_epochEv(ptr noundef nonnull align 8 dereferenceable(8) %this) #5 comdat align 2 {
entry:
  %retval = alloca %"class.std::chrono::duration", align 8
  %this.addr = alloca ptr, align 8
  store ptr %this, ptr %this.addr, align 8
  %this1 = load ptr, ptr %this.addr, align 8
  %__d = getelementptr inbounds %"class.std::chrono::time_point", ptr %this1, i32 0, i32 0
  call void @llvm.memcpy.p0.p0.i64(ptr align 8 %retval, ptr align 8 %__d, i64 8, i1 false)
  %coerce.dive = getelementptr inbounds %"class.std::chrono::duration", ptr %retval, i32 0, i32 0
  %0 = load i64, ptr %coerce.dive, align 8
  ret i64 %0
}

; Function Attrs: mustprogress uwtable
define linkonce_odr hidden i64 @_ZNSt6chrono20__duration_cast_implINS_8durationIlSt5ratioILl1ELl1000EEEES2_ILl1ELl1000000EElLb1ELb0EE6__castIlS2_ILl1ELl1000000000EEEES4_RKNS1_IT_T0_EE(ptr noundef nonnull align 8 dereferenceable(8) %__d) #4 comdat align 2 {
entry:
  %retval = alloca %"class.std::chrono::duration.113", align 8
  %__d.addr = alloca ptr, align 8
  %ref.tmp = alloca i64, align 8
  store ptr %__d, ptr %__d.addr, align 8
  %0 = load ptr, ptr %__d.addr, align 8
  %call = call noundef i64 @_ZNKSt6chrono8durationIlSt5ratioILl1ELl1000000000EEE5countEv(ptr noundef nonnull align 8 dereferenceable(8) %0)
  %div = sdiv i64 %call, 1000000
  store i64 %div, ptr %ref.tmp, align 8
  call void @_ZNSt6chrono8durationIlSt5ratioILl1ELl1000EEEC2IlvEERKT_(ptr noundef nonnull align 8 dereferenceable(8) %retval, ptr noundef nonnull align 8 dereferenceable(8) %ref.tmp)
  %coerce.dive = getelementptr inbounds %"class.std::chrono::duration.113", ptr %retval, i32 0, i32 0
  %1 = load i64, ptr %coerce.dive, align 8
  ret i64 %1
}

; Function Attrs: mustprogress nounwind uwtable
define linkonce_odr hidden noundef nonnull align 8 dereferenceable(8) ptr @_ZNSt6chrono8durationIlSt5ratioILl1ELl1000000000EEEpLERKS3_(ptr noundef nonnull align 8 dereferenceable(8) %this, ptr noundef nonnull align 8 dereferenceable(8) %__d) #5 comdat align 2 {
entry:
  %this.addr = alloca ptr, align 8
  %__d.addr = alloca ptr, align 8
  store ptr %this, ptr %this.addr, align 8
  store ptr %__d, ptr %__d.addr, align 8
  %this1 = load ptr, ptr %this.addr, align 8
  %0 = load ptr, ptr %__d.addr, align 8
  %call = call noundef i64 @_ZNKSt6chrono8durationIlSt5ratioILl1ELl1000000000EEE5countEv(ptr noundef nonnull align 8 dereferenceable(8) %0)
  %__r = getelementptr inbounds %"class.std::chrono::duration", ptr %this1, i32 0, i32 0
  %1 = load i64, ptr %__r, align 8
  %add = add nsw i64 %1, %call
  store i64 %add, ptr %__r, align 8
  ret ptr %this1
}

; Function Attrs: mustprogress uwtable
define linkonce_odr i64 @_ZNSt6chronomiINS_3_V212steady_clockENS_8durationIlSt5ratioILl1ELl1000000000EEEES6_EENSt11common_typeIJT0_T1_EE4typeERKNS_10time_pointIT_S8_EERKNSC_ISD_S9_EE(ptr noundef nonnull align 8 dereferenceable(8) %__lhs, ptr noundef nonnull align 8 dereferenceable(8) %__rhs) #4 comdat {
entry:
  %retval = alloca %"class.std::chrono::duration", align 8
  %__lhs.addr = alloca ptr, align 8
  %__rhs.addr = alloca ptr, align 8
  %ref.tmp = alloca %"class.std::chrono::duration", align 8
  %ref.tmp1 = alloca %"class.std::chrono::duration", align 8
  store ptr %__lhs, ptr %__lhs.addr, align 8
  store ptr %__rhs, ptr %__rhs.addr, align 8
  %0 = load ptr, ptr %__lhs.addr, align 8
  %call = call i64 @_ZNKSt6chrono10time_pointINS_3_V212steady_clockENS_8durationIlSt5ratioILl1ELl1000000000EEEEE16time_since_epochEv(ptr noundef nonnull align 8 dereferenceable(8) %0)
  %coerce.dive = getelementptr inbounds %"class.std::chrono::duration", ptr %ref.tmp, i32 0, i32 0
  store i64 %call, ptr %coerce.dive, align 8
  %1 = load ptr, ptr %__rhs.addr, align 8
  %call2 = call i64 @_ZNKSt6chrono10time_pointINS_3_V212steady_clockENS_8durationIlSt5ratioILl1ELl1000000000EEEEE16time_since_epochEv(ptr noundef nonnull align 8 dereferenceable(8) %1)
  %coerce.dive3 = getelementptr inbounds %"class.std::chrono::duration", ptr %ref.tmp1, i32 0, i32 0
  store i64 %call2, ptr %coerce.dive3, align 8
  %call4 = call i64 @_ZNSt6chronomiIlSt5ratioILl1ELl1000000000EElS2_EENSt11common_typeIJNS_8durationIT_T0_EENS4_IT1_T2_EEEE4typeERKS7_RKSA_(ptr noundef nonnull align 8 dereferenceable(8) %ref.tmp, ptr noundef nonnull align 8 dereferenceable(8) %ref.tmp1)
  %coerce.dive5 = getelementptr inbounds %"class.std::chrono::duration", ptr %retval, i32 0, i32 0
  store i64 %call4, ptr %coerce.dive5, align 8
  %coerce.dive6 = getelementptr inbounds %"class.std::chrono::duration", ptr %retval, i32 0, i32 0
  %2 = load i64, ptr %coerce.dive6, align 8
  ret i64 %2
}

; Function Attrs: mustprogress nounwind uwtable
define linkonce_odr hidden i64 @_ZN9stopwatch3getEv() #5 comdat align 2 {
entry:
  %retval = alloca %"class.std::chrono::time_point", align 8
  %call = call i64 @_ZNSt6chrono3_V212steady_clock3nowEv() #3
  %coerce.dive = getelementptr inbounds %"class.std::chrono::time_point", ptr %retval, i32 0, i32 0
  %coerce.dive1 = getelementptr inbounds %"class.std::chrono::duration", ptr %coerce.dive, i32 0, i32 0
  store i64 %call, ptr %coerce.dive1, align 8
  %coerce.dive2 = getelementptr inbounds %"class.std::chrono::time_point", ptr %retval, i32 0, i32 0
  %coerce.dive3 = getelementptr inbounds %"class.std::chrono::duration", ptr %coerce.dive2, i32 0, i32 0
  %0 = load i64, ptr %coerce.dive3, align 8
  ret i64 %0
}

; Function Attrs: mustprogress nounwind uwtable
define linkonce_odr hidden noundef i64 @_ZNKSt6chrono8durationIlSt5ratioILl1ELl1000EEE5countEv(ptr noundef nonnull align 8 dereferenceable(8) %this) #5 comdat align 2 {
entry:
  %this.addr = alloca ptr, align 8
  store ptr %this, ptr %this.addr, align 8
  %this1 = load ptr, ptr %this.addr, align 8
  %__r = getelementptr inbounds %"class.std::chrono::duration.113", ptr %this1, i32 0, i32 0
  %0 = load i64, ptr %__r, align 8
  ret i64 %0
}

; Function Attrs: mustprogress uwtable
define linkonce_odr i64 @_ZNSt6chrono13duration_castINS_8durationIlSt5ratioILl1ELl1000EEEElS2_ILl1ELl1000000000EEEENSt9enable_ifIXsr13__is_durationIT_EE5valueES7_E4typeERKNS1_IT0_T1_EE(ptr noundef nonnull align 8 dereferenceable(8) %__d) #4 comdat {
entry:
  %retval = alloca %"class.std::chrono::duration.113", align 8
  %__d.addr = alloca ptr, align 8
  store ptr %__d, ptr %__d.addr, align 8
  %0 = load ptr, ptr %__d.addr, align 8
  %call = call i64 @_ZNSt6chrono20__duration_cast_implINS_8durationIlSt5ratioILl1ELl1000EEEES2_ILl1ELl1000000EElLb1ELb0EE6__castIlS2_ILl1ELl1000000000EEEES4_RKNS1_IT_T0_EE(ptr noundef nonnull align 8 dereferenceable(8) %0)
  %coerce.dive = getelementptr inbounds %"class.std::chrono::duration.113", ptr %retval, i32 0, i32 0
  store i64 %call, ptr %coerce.dive, align 8
  %coerce.dive1 = getelementptr inbounds %"class.std::chrono::duration.113", ptr %retval, i32 0, i32 0
  %1 = load i64, ptr %coerce.dive1, align 8
  ret i64 %1
}

; Function Attrs: mustprogress nounwind uwtable
define linkonce_odr hidden void @_ZN9stopwatch5startEv(ptr noundef nonnull align 8 dereferenceable(17) %this) #5 comdat align 2 {
entry:
  %this.addr = alloca ptr, align 8
  %ref.tmp = alloca %"class.std::chrono::time_point", align 8
  store ptr %this, ptr %this.addr, align 8
  %this1 = load ptr, ptr %this.addr, align 8
  %m_running = getelementptr inbounds %class.stopwatch, ptr %this1, i32 0, i32 2
  %0 = load i8, ptr %m_running, align 8
  %tobool = trunc i8 %0 to i1
  br i1 %tobool, label %if.end, label %if.then

if.then:                                          ; preds = %entry
  %call = call i64 @_ZN9stopwatch3getEv()
  %coerce.dive = getelementptr inbounds %"class.std::chrono::time_point", ptr %ref.tmp, i32 0, i32 0
  %coerce.dive2 = getelementptr inbounds %"class.std::chrono::duration", ptr %coerce.dive, i32 0, i32 0
  store i64 %call, ptr %coerce.dive2, align 8
  %m_start = getelementptr inbounds %class.stopwatch, ptr %this1, i32 0, i32 0
  call void @llvm.memcpy.p0.p0.i64(ptr align 8 %m_start, ptr align 8 %ref.tmp, i64 8, i1 false)
  %m_running3 = getelementptr inbounds %class.stopwatch, ptr %this1, i32 0, i32 2
  store i8 1, ptr %m_running3, align 8
  br label %if.end

if.end:                                           ; preds = %if.then, %entry
  ret void
}

; Function Attrs: mustprogress uwtable
define linkonce_odr hidden void @_ZN9stopwatch4stopEv(ptr noundef nonnull align 8 dereferenceable(17) %this) #4 comdat align 2 {
entry:
  %this.addr = alloca ptr, align 8
  %ref.tmp = alloca %"class.std::chrono::duration", align 8
  %ref.tmp2 = alloca %"class.std::chrono::time_point", align 8
  store ptr %this, ptr %this.addr, align 8
  %this1 = load ptr, ptr %this.addr, align 8
  %m_running = getelementptr inbounds %class.stopwatch, ptr %this1, i32 0, i32 2
  %0 = load i8, ptr %m_running, align 8
  %tobool = trunc i8 %0 to i1
  br i1 %tobool, label %if.then, label %if.end

if.then:                                          ; preds = %entry
  %call = call i64 @_ZN9stopwatch3getEv()
  %coerce.dive = getelementptr inbounds %"class.std::chrono::time_point", ptr %ref.tmp2, i32 0, i32 0
  %coerce.dive3 = getelementptr inbounds %"class.std::chrono::duration", ptr %coerce.dive, i32 0, i32 0
  store i64 %call, ptr %coerce.dive3, align 8
  %m_start = getelementptr inbounds %class.stopwatch, ptr %this1, i32 0, i32 0
  %call4 = call i64 @_ZNSt6chronomiINS_3_V212steady_clockENS_8durationIlSt5ratioILl1ELl1000000000EEEES6_EENSt11common_typeIJT0_T1_EE4typeERKNS_10time_pointIT_S8_EERKNSC_ISD_S9_EE(ptr noundef nonnull align 8 dereferenceable(8) %ref.tmp2, ptr noundef nonnull align 8 dereferenceable(8) %m_start)
  %coerce.dive5 = getelementptr inbounds %"class.std::chrono::duration", ptr %ref.tmp, i32 0, i32 0
  store i64 %call4, ptr %coerce.dive5, align 8
  %m_elapsed = getelementptr inbounds %class.stopwatch, ptr %this1, i32 0, i32 1
  %call6 = call noundef nonnull align 8 dereferenceable(8) ptr @_ZNSt6chrono8durationIlSt5ratioILl1ELl1000000000EEEpLERKS3_(ptr noundef nonnull align 8 dereferenceable(8) %m_elapsed, ptr noundef nonnull align 8 dereferenceable(8) %ref.tmp)
  %m_running7 = getelementptr inbounds %class.stopwatch, ptr %this1, i32 0, i32 2
  store i8 0, ptr %m_running7, align 8
  br label %if.end

if.end:                                           ; preds = %if.then, %entry
  ret void
}

; Function Attrs: mustprogress uwtable
define linkonce_odr hidden noundef double @_ZNK9stopwatch11get_secondsEv(ptr noundef nonnull align 8 dereferenceable(17) %this) #4 comdat align 2 {
entry:
  %this.addr = alloca ptr, align 8
  %ref.tmp = alloca %"class.std::chrono::duration.113", align 8
  store ptr %this, ptr %this.addr, align 8
  %this1 = load ptr, ptr %this.addr, align 8
  %m_running = getelementptr inbounds %class.stopwatch, ptr %this1, i32 0, i32 2
  %0 = load i8, ptr %m_running, align 8
  %tobool = trunc i8 %0 to i1
  br i1 %tobool, label %if.then, label %if.end

if.then:                                          ; preds = %entry
  call void @_ZN9stopwatch4stopEv(ptr noundef nonnull align 8 dereferenceable(17) %this1)
  call void @_ZN9stopwatch5startEv(ptr noundef nonnull align 8 dereferenceable(17) %this1)
  br label %if.end

if.end:                                           ; preds = %if.then, %entry
  %m_elapsed = getelementptr inbounds %class.stopwatch, ptr %this1, i32 0, i32 1
  %call = call i64 @_ZNSt6chrono13duration_castINS_8durationIlSt5ratioILl1ELl1000EEEElS2_ILl1ELl1000000000EEEENSt9enable_ifIXsr13__is_durationIT_EE5valueES7_E4typeERKNS1_IT0_T1_EE(ptr noundef nonnull align 8 dereferenceable(8) %m_elapsed)
  %coerce.dive = getelementptr inbounds %"class.std::chrono::duration.113", ptr %ref.tmp, i32 0, i32 0
  store i64 %call, ptr %coerce.dive, align 8
  %call2 = call noundef i64 @_ZNKSt6chrono8durationIlSt5ratioILl1ELl1000EEE5countEv(ptr noundef nonnull align 8 dereferenceable(8) %ref.tmp)
  %conv = sitofp i64 %call2 to double
  %div = fdiv double %conv, 1.000000e+03
  ret double %div
}

; Function Attrs: mustprogress uwtable
define hidden void @_ZNK6spacer28lemma_quantifier_generalizer18collect_statisticsER10statistics(ptr noundef nonnull align 8 dereferenceable(96) %this, ptr noundef nonnull align 8 dereferenceable(16) %st) unnamed_addr #4 align 2 {
entry:
  %this.addr = alloca ptr, align 8
  %st.addr = alloca ptr, align 8
  store ptr %this, ptr %this.addr, align 8
  store ptr %st, ptr %st.addr, align 8
  %this1 = load ptr, ptr %this.addr, align 8
  %0 = load ptr, ptr %st.addr, align 8
  %m_st = getelementptr inbounds %"class.spacer::lemma_quantifier_generalizer", ptr %this1, i32 0, i32 3
  %watch = getelementptr inbounds %"struct.spacer::lemma_quantifier_generalizer::stats", ptr %m_st, i32 0, i32 2
  %call = call noundef double @_ZNK9stopwatch11get_secondsEv(ptr noundef nonnull align 8 dereferenceable(17) %watch)
  call void @_ZN10statistics6updateEPKcd(ptr noundef nonnull align 8 dereferenceable(16) %0, ptr noundef @.str, double noundef %call)
  %1 = load ptr, ptr %st.addr, align 8
  %m_st2 = getelementptr inbounds %"class.spacer::lemma_quantifier_generalizer", ptr %this1, i32 0, i32 3
  %count = getelementptr inbounds %"struct.spacer::lemma_quantifier_generalizer::stats", ptr %m_st2, i32 0, i32 0
  %2 = load i32, ptr %count, align 8
  call void @_ZN10statistics6updateEPKcj(ptr noundef nonnull align 8 dereferenceable(16) %1, ptr noundef @.str.1, i32 noundef %2)
  %3 = load ptr, ptr %st.addr, align 8
  %m_st3 = getelementptr inbounds %"class.spacer::lemma_quantifier_generalizer", ptr %this1, i32 0, i32 3
  %num_failures = getelementptr inbounds %"struct.spacer::lemma_quantifier_generalizer::stats", ptr %m_st3, i32 0, i32 1
  %4 = load i32, ptr %num_failures, align 4
  call void @_ZN10statistics6updateEPKcj(ptr noundef nonnull align 8 dereferenceable(16) %3, ptr noundef @.str.2, i32 noundef %4)
  ret void
}