; Function Attrs: mustprogress uwtable
define hidden void @_ZNK6spacer28lemma_quantifier_generalizer18collect_statisticsER10statistics(ptr nocapture noundef nonnull align 8 dereferenceable(96) %this, ptr noundef nonnull align 8 dereferenceable(16) %st) unnamed_addr #3 align 2 {
entry:
  %m_running.i = getelementptr inbounds i8, ptr %this, i64 64
  %0 = load i8, ptr %m_running.i, align 8
  %1 = and i8 %0, 1
  %tobool.not.i = icmp eq i8 %1, 0
  br i1 %tobool.not.i, label %_ZNK9stopwatch11get_secondsEv.exit, label %_ZN9stopwatch4stopEv.exit.i

_ZN9stopwatch4stopEv.exit.i:                      ; preds = %entry
  %watch = getelementptr inbounds i8, ptr %this, i64 48
  %call.i.i.i = tail call i64 @_ZNSt6chrono3_V212steady_clock3nowEv() #18
  %retval.sroa.0.0.copyload.i1.i.i.i = load i64, ptr %watch, align 8
  %sub.i.i.i.i = sub i64 %call.i.i.i, %retval.sroa.0.0.copyload.i1.i.i.i
  %m_elapsed.i.i = getelementptr inbounds i8, ptr %this, i64 56
  %2 = load i64, ptr %m_elapsed.i.i, align 8
  %add.i.i.i = add nsw i64 %sub.i.i.i.i, %2
  store i64 %add.i.i.i, ptr %m_elapsed.i.i, align 8
  store i8 0, ptr %m_running.i, align 8
  %call.i.i4.i = tail call i64 @_ZNSt6chrono3_V212steady_clock3nowEv() #18
  store i64 %call.i.i4.i, ptr %watch, align 8
  store i8 1, ptr %m_running.i, align 8
  br label %_ZNK9stopwatch11get_secondsEv.exit

_ZNK9stopwatch11get_secondsEv.exit:               ; preds = %entry, %_ZN9stopwatch4stopEv.exit.i
  %m_st = getelementptr inbounds i8, ptr %this, i64 40
  %m_elapsed.i = getelementptr inbounds i8, ptr %this, i64 56
  %3 = load i64, ptr %m_elapsed.i, align 8
  %div.i.i.i = sdiv i64 %3, 1000000
  %conv.i = sitofp i64 %div.i.i.i to double
  %div.i = fdiv double %conv.i, 1.000000e+03
  tail call void @_ZN10statistics6updateEPKcd(ptr noundef nonnull align 8 dereferenceable(16) %st, ptr noundef nonnull @.str, double noundef %div.i)
  %4 = load i32, ptr %m_st, align 8
  tail call void @_ZN10statistics6updateEPKcj(ptr noundef nonnull align 8 dereferenceable(16) %st, ptr noundef nonnull @.str.1, i32 noundef %4)
  %num_failures = getelementptr inbounds i8, ptr %this, i64 44
  %5 = load i32, ptr %num_failures, align 4
  tail call void @_ZN10statistics6updateEPKcj(ptr noundef nonnull align 8 dereferenceable(16) %st, ptr noundef nonnull @.str.2, i32 noundef %5)
  ret void
}